target datalayout = "e-m:e-p270:32:32-p271:32:32-p272:64:64-i64:64-i128:128-f80:128-n8:16:32:64-S128"
target triple = "x86_64-pc-linux-gnu"

%struct.FullTransactionId = type { i64 }
%struct.SnapshotData = type { i32, i32, i32, ptr, i32, ptr, i32, i8, i8, i8, i32, i32, ptr, i32, i32, %struct.pairingheap_node, i64 }
%struct.pairingheap_node = type { ptr, ptr, ptr }
%struct.pg_snapshot = type { i32, i32, %struct.FullTransactionId, %struct.FullTransactionId, [0 x %struct.FullTransactionId] }
%struct.anon = type { i32, [0 x i8] }

@.str.1 = private unnamed_addr constant [23 x i8] c"no active snapshot set\00", align 1
@.str.2 = private unnamed_addr constant [12 x i8] c"xid8funcs.c\00", align 1
@__func__.pg_current_snapshot = private unnamed_addr constant [20 x i8] c"pg_current_snapshot\00", align 1

; Function Attrs: inlinehint nounwind uwtable
define internal i64 @qunique(ptr noundef %0, i64 noundef %1, i64 noundef %2, ptr noundef %3) #2 {
  %5 = alloca i64, align 8
  %6 = alloca ptr, align 8
  %7 = alloca i64, align 8
  %8 = alloca i64, align 8
  %9 = alloca ptr, align 8
  %10 = alloca ptr, align 8
  %11 = alloca i64, align 8
  %12 = alloca i64, align 8
  %13 = alloca i32, align 4
  store ptr %0, ptr %6, align 8
  store i64 %1, ptr %7, align 8
  store i64 %2, ptr %8, align 8
  store ptr %3, ptr %9, align 8
  call void @llvm.lifetime.start.p0(i64 8, ptr %10) #9
  %14 = load ptr, ptr %6, align 8
  store ptr %14, ptr %10, align 8
  call void @llvm.lifetime.start.p0(i64 8, ptr %11) #9
  call void @llvm.lifetime.start.p0(i64 8, ptr %12) #9
  %15 = load i64, ptr %7, align 8
  %16 = icmp ule i64 %15, 1
  br i1 %16, label %17, label %19

17:                                               ; preds = %4
  %18 = load i64, ptr %7, align 8
  store i64 %18, ptr %5, align 8
  store i32 1, ptr %13, align 4
  br label %62

19:                                               ; preds = %4
  store i64 1, ptr %11, align 8
  store i64 0, ptr %12, align 8
  br label %20

20:                                               ; preds = %56, %19
  %21 = load i64, ptr %11, align 8
  %22 = load i64, ptr %7, align 8
  %23 = icmp ult i64 %21, %22
  br i1 %23, label %24, label %59

24:                                               ; preds = %20
  %25 = load ptr, ptr %9, align 8
  %26 = load ptr, ptr %10, align 8
  %27 = load i64, ptr %11, align 8
  %28 = load i64, ptr %8, align 8
  %29 = mul i64 %27, %28
  %30 = getelementptr inbounds nuw i8, ptr %26, i64 %29
  %31 = load ptr, ptr %10, align 8
  %32 = load i64, ptr %12, align 8
  %33 = load i64, ptr %8, align 8
  %34 = mul i64 %32, %33
  %35 = getelementptr inbounds nuw i8, ptr %31, i64 %34
  %36 = call i32 %25(ptr noundef %30, ptr noundef %35)
  %37 = icmp ne i32 %36, 0
  br i1 %37, label %38, label %55

38:                                               ; preds = %24
  %39 = load i64, ptr %12, align 8
  %40 = add i64 %39, 1
  store i64 %40, ptr %12, align 8
  %41 = load i64, ptr %11, align 8
  %42 = icmp ne i64 %40, %41
  br i1 %42, label %43, label %55

43:                                               ; preds = %38
  %44 = load ptr, ptr %10, align 8
  %45 = load i64, ptr %12, align 8
  %46 = load i64, ptr %8, align 8
  %47 = mul i64 %45, %46
  %48 = getelementptr inbounds nuw i8, ptr %44, i64 %47
  %49 = load ptr, ptr %10, align 8
  %50 = load i64, ptr %11, align 8
  %51 = load i64, ptr %8, align 8
  %52 = mul i64 %50, %51
  %53 = getelementptr inbounds nuw i8, ptr %49, i64 %52
  %54 = load i64, ptr %8, align 8
  call void @llvm.memcpy.p0.p0.i64(ptr align 1 %48, ptr align 1 %53, i64 %54, i1 false)
  br label %55

55:                                               ; preds = %43, %38, %24
  br label %56

56:                                               ; preds = %55
  %57 = load i64, ptr %11, align 8
  %58 = add i64 %57, 1
  store i64 %58, ptr %11, align 8
  br label %20, !llvm.loop !13

59:                                               ; preds = %20
  %60 = load i64, ptr %12, align 8
  %61 = add i64 %60, 1
  store i64 %61, ptr %5, align 8
  store i32 1, ptr %13, align 4
  br label %62

62:                                               ; preds = %59, %17
  call void @llvm.lifetime.end.p0(i64 8, ptr %12) #9
  call void @llvm.lifetime.end.p0(i64 8, ptr %11) #9
  call void @llvm.lifetime.end.p0(i64 8, ptr %10) #9
  %63 = load i64, ptr %5, align 8
  ret i64 %63
}

; Function Attrs: inlinehint nounwind uwtable
define internal i64 @FullTransactionIdFromEpochAndXid(i32 noundef %0, i32 noundef %1) #2 {
  %3 = alloca %struct.FullTransactionId, align 8
  %4 = alloca i32, align 4
  %5 = alloca i32, align 4
  store i32 %0, ptr %4, align 4
  store i32 %1, ptr %5, align 4
  %6 = load i32, ptr %4, align 4
  %7 = zext i32 %6 to i64
  %8 = shl i64 %7, 32
  %9 = load i32, ptr %5, align 4
  %10 = zext i32 %9 to i64
  %11 = or i64 %8, %10
  %12 = getelementptr inbounds nuw %struct.FullTransactionId, ptr %3, i32 0, i32 0
  store i64 %11, ptr %12, align 8
  %13 = getelementptr inbounds nuw %struct.FullTransactionId, ptr %3, i32 0, i32 0
  %14 = load i64, ptr %13, align 8
  ret i64 %14
}

; Function Attrs: inlinehint nounwind uwtable
define internal i64 @PointerGetDatum(ptr noundef %0) #2 {
  %2 = alloca ptr, align 8
  store ptr %0, ptr %2, align 8
  %3 = load ptr, ptr %2, align 8
  %4 = ptrtoint ptr %3 to i64
  ret i64 %4
}

; Function Attrs: nounwind uwtable
define internal void @sort_snapshot(ptr noundef %0) #0 {
  %2 = alloca ptr, align 8
  store ptr %0, ptr %2, align 8
  %3 = load ptr, ptr %2, align 8
  %4 = getelementptr inbounds nuw %struct.pg_snapshot, ptr %3, i32 0, i32 1
  %5 = load i32, ptr %4, align 4
  %6 = icmp ugt i32 %5, 1
  br i1 %6, label %7, label %26

7:                                                ; preds = %1
  %8 = load ptr, ptr %2, align 8
  %9 = getelementptr inbounds nuw %struct.pg_snapshot, ptr %8, i32 0, i32 4
  %10 = getelementptr inbounds [0 x %struct.FullTransactionId], ptr %9, i64 0, i64 0
  %11 = load ptr, ptr %2, align 8
  %12 = getelementptr inbounds nuw %struct.pg_snapshot, ptr %11, i32 0, i32 1
  %13 = load i32, ptr %12, align 4
  %14 = zext i32 %13 to i64
  call void @pg_qsort(ptr noundef %10, i64 noundef %14, i64 noundef 8, ptr noundef @cmp_fxid)
  %15 = load ptr, ptr %2, align 8
  %16 = getelementptr inbounds nuw %struct.pg_snapshot, ptr %15, i32 0, i32 4
  %17 = getelementptr inbounds [0 x %struct.FullTransactionId], ptr %16, i64 0, i64 0
  %18 = load ptr, ptr %2, align 8
  %19 = getelementptr inbounds nuw %struct.pg_snapshot, ptr %18, i32 0, i32 1
  %20 = load i32, ptr %19, align 4
  %21 = zext i32 %20 to i64
  %22 = call i64 @qunique(ptr noundef %17, i64 noundef %21, i64 noundef 8, ptr noundef @cmp_fxid)
  %23 = trunc i64 %22 to i32
  %24 = load ptr, ptr %2, align 8
  %25 = getelementptr inbounds nuw %struct.pg_snapshot, ptr %24, i32 0, i32 1
  store i32 %23, ptr %25, align 4
  br label %26

26:                                               ; preds = %7, %1
  ret void
}

; Function Attrs: inlinehint nounwind uwtable
define internal i64 @FullTransactionIdFromAllowableAt(i64 %0, i32 noundef %1) #2 {
  %3 = alloca %struct.FullTransactionId, align 8
  %4 = alloca %struct.FullTransactionId, align 8
  %5 = alloca i32, align 4
  %6 = alloca i32, align 4
  %7 = alloca i32, align 4
  %8 = getelementptr inbounds nuw %struct.FullTransactionId, ptr %4, i32 0, i32 0
  store i64 %0, ptr %8, align 8
  store i32 %1, ptr %5, align 4
  call void @llvm.lifetime.start.p0(i64 4, ptr %6) #9
  %9 = load i32, ptr %5, align 4
  %10 = icmp uge i32 %9, 3
  br i1 %10, label %15, label %11

11:                                               ; preds = %2
  %12 = load i32, ptr %5, align 4
  %13 = call i64 @FullTransactionIdFromEpochAndXid(i32 noundef 0, i32 noundef %12)
  %14 = getelementptr inbounds nuw %struct.FullTransactionId, ptr %3, i32 0, i32 0
  store i64 %13, ptr %14, align 8
  store i32 1, ptr %7, align 4
  br label %39

15:                                               ; preds = %2
  %16 = getelementptr inbounds nuw %struct.FullTransactionId, ptr %4, i32 0, i32 0
  %17 = load i64, ptr %16, align 8
  %18 = lshr i64 %17, 32
  %19 = trunc i64 %18 to i32
  store i32 %19, ptr %6, align 4
  %20 = load i32, ptr %5, align 4
  %21 = getelementptr inbounds nuw %struct.FullTransactionId, ptr %4, i32 0, i32 0
  %22 = load i64, ptr %21, align 8
  %23 = trunc i64 %22 to i32
  %24 = icmp ugt i32 %20, %23
  %25 = zext i1 %24 to i32
  %26 = icmp ne i32 %25, 0
  %27 = zext i1 %26 to i32
  %28 = sext i32 %27 to i64
  %29 = call i64 @llvm.expect.i64(i64 %28, i64 0)
  %30 = icmp ne i64 %29, 0
  br i1 %30, label %31, label %34

31:                                               ; preds = %15
  %32 = load i32, ptr %6, align 4
  %33 = add i32 %32, -1
  store i32 %33, ptr %6, align 4
  br label %34

34:                                               ; preds = %31, %15
  %35 = load i32, ptr %6, align 4
  %36 = load i32, ptr %5, align 4
  %37 = call i64 @FullTransactionIdFromEpochAndXid(i32 noundef %35, i32 noundef %36)
  %38 = getelementptr inbounds nuw %struct.FullTransactionId, ptr %3, i32 0, i32 0
  store i64 %37, ptr %38, align 8
  store i32 1, ptr %7, align 4
  br label %39

39:                                               ; preds = %34, %11
  call void @llvm.lifetime.end.p0(i64 4, ptr %6) #9
  %40 = getelementptr inbounds nuw %struct.FullTransactionId, ptr %3, i32 0, i32 0
  %41 = load i64, ptr %40, align 8
  ret i64 %41
}

; Function Attrs: nounwind uwtable
define dso_local i64 @pg_current_snapshot(ptr noundef %0) #0 {
  %2 = alloca ptr, align 8
  %3 = alloca ptr, align 8
  %4 = alloca i32, align 4
  %5 = alloca i32, align 4
  %6 = alloca ptr, align 8
  %7 = alloca %struct.FullTransactionId, align 8
  %8 = alloca %struct.FullTransactionId, align 8
  %9 = alloca %struct.FullTransactionId, align 8
  %10 = alloca %struct.FullTransactionId, align 8
  store ptr %0, ptr %2, align 8
  call void @llvm.lifetime.start.p0(i64 8, ptr %3) #9
  call void @llvm.lifetime.start.p0(i64 4, ptr %4) #9
  call void @llvm.lifetime.start.p0(i64 4, ptr %5) #9
  call void @llvm.lifetime.start.p0(i64 8, ptr %6) #9
  call void @llvm.lifetime.start.p0(i64 8, ptr %7) #9
  %11 = call i64 @ReadNextFullTransactionId()
  %12 = getelementptr inbounds nuw %struct.FullTransactionId, ptr %7, i32 0, i32 0
  store i64 %11, ptr %12, align 8
  %13 = call ptr @GetActiveSnapshot()
  store ptr %13, ptr %6, align 8
  %14 = load ptr, ptr %6, align 8
  %15 = icmp eq ptr %14, null
  br i1 %15, label %16, label %27

16:                                               ; preds = %1
  br label %17

17:                                               ; preds = %16
  br i1 true, label %18, label %20

18:                                               ; preds = %17
  %19 = call zeroext i1 @errstart_cold(i32 noundef 21, ptr noundef null) #10
  br i1 %19, label %22, label %24

20:                                               ; preds = %17
  %21 = call zeroext i1 @errstart(i32 noundef 21, ptr noundef null)
  br i1 %21, label %22, label %24

22:                                               ; preds = %20, %18
  %23 = call i32 (ptr, ...) @errmsg_internal(ptr noundef @.str.1)
  call void @errfinish(ptr noundef @.str.2, i32 noundef 380, ptr noundef @__func__.pg_current_snapshot)
  br label %24

24:                                               ; preds = %22, %20, %18
  unreachable

25:                                               ; No predecessors!
  br label %26

26:                                               ; preds = %25
  br label %27

27:                                               ; preds = %26, %1
  %28 = load ptr, ptr %6, align 8
  %29 = getelementptr inbounds nuw %struct.SnapshotData, ptr %28, i32 0, i32 4
  %30 = load i32, ptr %29, align 8
  store i32 %30, ptr %4, align 4
  %31 = load i32, ptr %4, align 4
  %32 = zext i32 %31 to i64
  %33 = mul i64 8, %32
  %34 = add i64 24, %33
  %35 = call ptr @palloc(i64 noundef %34)
  store ptr %35, ptr %3, align 8
  %36 = load ptr, ptr %3, align 8
  %37 = getelementptr inbounds nuw %struct.pg_snapshot, ptr %36, i32 0, i32 2
  call void @llvm.lifetime.start.p0(i64 8, ptr %8) #9
  %38 = load ptr, ptr %6, align 8
  %39 = getelementptr inbounds nuw %struct.SnapshotData, ptr %38, i32 0, i32 1
  %40 = load i32, ptr %39, align 4
  %41 = getelementptr inbounds nuw %struct.FullTransactionId, ptr %7, i32 0, i32 0
  %42 = load i64, ptr %41, align 8
  %43 = call i64 @FullTransactionIdFromAllowableAt(i64 %42, i32 noundef %40)
  %44 = getelementptr inbounds nuw %struct.FullTransactionId, ptr %8, i32 0, i32 0
  store i64 %43, ptr %44, align 8
  call void @llvm.memcpy.p0.p0.i64(ptr align 8 %37, ptr align 8 %8, i64 8, i1 false)
  call void @llvm.lifetime.end.p0(i64 8, ptr %8) #9
  %45 = load ptr, ptr %3, align 8
  %46 = getelementptr inbounds nuw %struct.pg_snapshot, ptr %45, i32 0, i32 3
  call void @llvm.lifetime.start.p0(i64 8, ptr %9) #9
  %47 = load ptr, ptr %6, align 8
  %48 = getelementptr inbounds nuw %struct.SnapshotData, ptr %47, i32 0, i32 2
  %49 = load i32, ptr %48, align 8
  %50 = getelementptr inbounds nuw %struct.FullTransactionId, ptr %7, i32 0, i32 0
  %51 = load i64, ptr %50, align 8
  %52 = call i64 @FullTransactionIdFromAllowableAt(i64 %51, i32 noundef %49)
  %53 = getelementptr inbounds nuw %struct.FullTransactionId, ptr %9, i32 0, i32 0
  store i64 %52, ptr %53, align 8
  call void @llvm.memcpy.p0.p0.i64(ptr align 8 %46, ptr align 8 %9, i64 8, i1 false)
  call void @llvm.lifetime.end.p0(i64 8, ptr %9) #9
  %54 = load i32, ptr %4, align 4
  %55 = load ptr, ptr %3, align 8
  %56 = getelementptr inbounds nuw %struct.pg_snapshot, ptr %55, i32 0, i32 1
  store i32 %54, ptr %56, align 4
  store i32 0, ptr %5, align 4
  br label %57

57:                                               ; preds = %78, %27
  %58 = load i32, ptr %5, align 4
  %59 = load i32, ptr %4, align 4
  %60 = icmp ult i32 %58, %59
  br i1 %60, label %61, label %81

61:                                               ; preds = %57
  %62 = load ptr, ptr %3, align 8
  %63 = getelementptr inbounds nuw %struct.pg_snapshot, ptr %62, i32 0, i32 4
  %64 = load i32, ptr %5, align 4
  %65 = zext i32 %64 to i64
  %66 = getelementptr inbounds nuw [0 x %struct.FullTransactionId], ptr %63, i64 0, i64 %65
  call void @llvm.lifetime.start.p0(i64 8, ptr %10) #9
  %67 = load ptr, ptr %6, align 8
  %68 = getelementptr inbounds nuw %struct.SnapshotData, ptr %67, i32 0, i32 3
  %69 = load ptr, ptr %68, align 8
  %70 = load i32, ptr %5, align 4
  %71 = zext i32 %70 to i64
  %72 = getelementptr inbounds nuw i32, ptr %69, i64 %71
  %73 = load i32, ptr %72, align 4
  %74 = getelementptr inbounds nuw %struct.FullTransactionId, ptr %7, i32 0, i32 0
  %75 = load i64, ptr %74, align 8
  %76 = call i64 @FullTransactionIdFromAllowableAt(i64 %75, i32 noundef %73)
  %77 = getelementptr inbounds nuw %struct.FullTransactionId, ptr %10, i32 0, i32 0
  store i64 %76, ptr %77, align 8
  call void @llvm.memcpy.p0.p0.i64(ptr align 8 %66, ptr align 8 %10, i64 8, i1 false)
  call void @llvm.lifetime.end.p0(i64 8, ptr %10) #9
  br label %78

78:                                               ; preds = %61
  %79 = load i32, ptr %5, align 4
  %80 = add i32 %79, 1
  store i32 %80, ptr %5, align 4
  br label %57, !llvm.loop !4

81:                                               ; preds = %57
  %82 = load ptr, ptr %3, align 8
  call void @sort_snapshot(ptr noundef %82)
  %83 = load ptr, ptr %3, align 8
  %84 = getelementptr inbounds nuw %struct.pg_snapshot, ptr %83, i32 0, i32 1
  %85 = load i32, ptr %84, align 4
  %86 = zext i32 %85 to i64
  %87 = mul i64 8, %86
  %88 = add i64 24, %87
  %89 = trunc i64 %88 to i32
  %90 = shl i32 %89, 2
  %91 = load ptr, ptr %3, align 8
  %92 = getelementptr inbounds nuw %struct.anon, ptr %91, i32 0, i32 0
  store i32 %90, ptr %92, align 4
  %93 = load ptr, ptr %3, align 8
  %94 = call i64 @PointerGetDatum(ptr noundef %93)
  call void @llvm.lifetime.end.p0(i64 8, ptr %7) #9
  call void @llvm.lifetime.end.p0(i64 8, ptr %6) #9
  call void @llvm.lifetime.end.p0(i64 4, ptr %5) #9
  call void @llvm.lifetime.end.p0(i64 4, ptr %4) #9
  call void @llvm.lifetime.end.p0(i64 8, ptr %3) #9
  ret i64 %94
}