; Function Attrs: nounwind uwtable
define dso_local i64 @pg_current_snapshot(ptr noundef readnone captures(none) %0) local_unnamed_addr #0 {
  %2 = tail call i64 @ReadNextFullTransactionId() #11
  %3 = tail call ptr @GetActiveSnapshot() #11
  %4 = icmp eq ptr %3, null
  br i1 %4, label %5, label %8

5:                                                ; preds = %1
  %6 = tail call zeroext i1 @errstart_cold(i32 noundef 21, ptr noundef null) #12
  tail call void @llvm.assume(i1 %6)
  %7 = tail call i32 (ptr, ...) @errmsg_internal(ptr noundef nonnull @.str.1) #11
  tail call void @errfinish(ptr noundef nonnull @.str.2, i32 noundef 380, ptr noundef nonnull @__func__.pg_current_snapshot) #11
  unreachable

8:                                                ; preds = %1
  %9 = getelementptr inbounds nuw i8, ptr %3, i64 24
  %10 = load i32, ptr %9, align 8
  %11 = zext i32 %10 to i64
  %12 = shl nuw nsw i64 %11, 3
  %13 = add nuw nsw i64 %12, 24
  %14 = tail call ptr @palloc(i64 noundef %13) #11
  %15 = getelementptr inbounds nuw i8, ptr %14, i64 8
  %16 = getelementptr inbounds nuw i8, ptr %3, i64 4
  %17 = load i32, ptr %16, align 4
  %18 = icmp ugt i32 %17, 2
  br i1 %18, label %21, label %19

19:                                               ; preds = %8
  %20 = zext nneg i32 %17 to i64
  br label %FullTransactionIdFromAllowableAt.exit

21:                                               ; preds = %8
  %22 = lshr i64 %2, 32
  %23 = trunc i64 %2 to i32
  %24 = icmp ugt i32 %17, %23
  br i1 %24, label %25, label %28, !prof !4

25:                                               ; preds = %21
  %26 = add nuw nsw i64 %22, 4294967295
  %27 = and i64 %26, 4294967295
  br label %28

28:                                               ; preds = %25, %21
  %.0.i = phi i64 [ %27, %25 ], [ %22, %21 ]
  %29 = shl nuw i64 %.0.i, 32
  %30 = zext i32 %17 to i64
  %31 = or disjoint i64 %29, %30
  br label %FullTransactionIdFromAllowableAt.exit

FullTransactionIdFromAllowableAt.exit:            ; preds = %19, %28
  %.sroa.07.0.i = phi i64 [ %31, %28 ], [ %20, %19 ]
  store i64 %.sroa.07.0.i, ptr %15, align 8
  %32 = getelementptr inbounds nuw i8, ptr %14, i64 16
  %33 = getelementptr inbounds nuw i8, ptr %3, i64 8
  %34 = load i32, ptr %33, align 8
  %35 = icmp ugt i32 %34, 2
  br i1 %35, label %38, label %36

36:                                               ; preds = %FullTransactionIdFromAllowableAt.exit
  %37 = zext nneg i32 %34 to i64
  br label %FullTransactionIdFromAllowableAt.exit27

38:                                               ; preds = %FullTransactionIdFromAllowableAt.exit
  %39 = lshr i64 %2, 32
  %40 = trunc i64 %2 to i32
  %41 = icmp ugt i32 %34, %40
  br i1 %41, label %42, label %45, !prof !4

42:                                               ; preds = %38
  %43 = add nuw nsw i64 %39, 4294967295
  %44 = and i64 %43, 4294967295
  br label %45

45:                                               ; preds = %42, %38
  %.0.i26 = phi i64 [ %44, %42 ], [ %39, %38 ]
  %46 = shl nuw i64 %.0.i26, 32
  %47 = zext i32 %34 to i64
  %48 = or disjoint i64 %46, %47
  br label %FullTransactionIdFromAllowableAt.exit27

FullTransactionIdFromAllowableAt.exit27:          ; preds = %36, %45
  %.sroa.07.0.i25 = phi i64 [ %48, %45 ], [ %37, %36 ]
  store i64 %.sroa.07.0.i25, ptr %32, align 8
  %49 = getelementptr inbounds nuw i8, ptr %14, i64 4
  store i32 %10, ptr %49, align 4
  %.not = icmp eq i32 %10, 0
  br i1 %.not, label %sort_snapshot.exit, label %.lr.ph

.lr.ph:                                           ; preds = %FullTransactionIdFromAllowableAt.exit27
  %50 = getelementptr inbounds nuw i8, ptr %14, i64 24
  %51 = getelementptr inbounds nuw i8, ptr %3, i64 16
  %52 = lshr i64 %2, 32
  %53 = trunc i64 %2 to i32
  %54 = add nuw nsw i64 %52, 4294967295
  %55 = and i64 %54, 4294967295
  br label %56

56:                                               ; preds = %.lr.ph, %FullTransactionIdFromAllowableAt.exit30
  %indvars.iv = phi i64 [ 0, %.lr.ph ], [ %indvars.iv.next, %FullTransactionIdFromAllowableAt.exit30 ]
  %57 = getelementptr inbounds nuw [0 x %struct.FullTransactionId], ptr %50, i64 0, i64 %indvars.iv
  %58 = load ptr, ptr %51, align 8
  %59 = getelementptr inbounds nuw i32, ptr %58, i64 %indvars.iv
  %60 = load i32, ptr %59, align 4
  %61 = icmp ugt i32 %60, 2
  br i1 %61, label %64, label %62

62:                                               ; preds = %56
  %63 = zext nneg i32 %60 to i64
  br label %FullTransactionIdFromAllowableAt.exit30

64:                                               ; preds = %56
  %65 = icmp ugt i32 %60, %53
  br i1 %65, label %66, label %67, !prof !4

66:                                               ; preds = %64
  br label %67

67:                                               ; preds = %66, %64
  %.0.i29 = phi i64 [ %55, %66 ], [ %52, %64 ]
  %68 = shl nuw i64 %.0.i29, 32
  %69 = zext i32 %60 to i64
  %70 = or disjoint i64 %68, %69
  br label %FullTransactionIdFromAllowableAt.exit30

FullTransactionIdFromAllowableAt.exit30:          ; preds = %62, %67
  %.sroa.07.0.i28 = phi i64 [ %70, %67 ], [ %63, %62 ]
  store i64 %.sroa.07.0.i28, ptr %57, align 8
  %indvars.iv.next = add nuw nsw i64 %indvars.iv, 1
  %exitcond.not = icmp eq i64 %indvars.iv.next, %11
  br i1 %exitcond.not, label %._crit_edge, label %56, !llvm.loop !5

._crit_edge:                                      ; preds = %FullTransactionIdFromAllowableAt.exit30
  %.not33 = icmp eq i32 %10, 1
  br i1 %.not33, label %sort_snapshot.exit, label %71

71:                                               ; preds = %._crit_edge
  %72 = getelementptr inbounds nuw i8, ptr %14, i64 24
  tail call void @pg_qsort(ptr noundef nonnull %72, i64 noundef %11, i64 noundef 8, ptr noundef nonnull @cmp_fxid) #11
  %73 = load i32, ptr %49, align 4
  %74 = zext i32 %73 to i64
  %75 = icmp ult i32 %73, 2
  br i1 %75, label %qunique.exit.i, label %.preheader.i.i

.preheader.i.i:                                   ; preds = %71, %85
  %.02.i.i = phi i64 [ %.1.i.i, %85 ], [ 0, %71 ]
  %.0231.i.i = phi i64 [ %86, %85 ], [ 1, %71 ]
  %76 = shl nuw nsw i64 %.0231.i.i, 3
  %77 = getelementptr inbounds nuw i8, ptr %72, i64 %76
  %78 = shl i64 %.02.i.i, 3
  %79 = getelementptr inbounds nuw i8, ptr %72, i64 %78
  %.sroa.02.0.copyload.i.i.i = load i64, ptr %77, align 8
  %.sroa.0.0.copyload.i.i.i = load i64, ptr %79, align 8
  %.not.i.i = icmp eq i64 %.sroa.02.0.copyload.i.i.i, %.sroa.0.0.copyload.i.i.i
  br i1 %.not.i.i, label %85, label %80

80:                                               ; preds = %.preheader.i.i
  %81 = add i64 %.02.i.i, 1
  %.not29.i.i = icmp eq i64 %81, %.0231.i.i
  br i1 %.not29.i.i, label %85, label %82

82:                                               ; preds = %80
  %83 = shl i64 %81, 3
  %84 = getelementptr inbounds nuw i8, ptr %72, i64 %83
  store i64 %.sroa.02.0.copyload.i.i.i, ptr %84, align 1
  br label %85

85:                                               ; preds = %82, %80, %.preheader.i.i
  %.1.i.i = phi i64 [ %81, %82 ], [ %.0231.i.i, %80 ], [ %.02.i.i, %.preheader.i.i ]
  %86 = add nuw nsw i64 %.0231.i.i, 1
  %exitcond.not.i.i = icmp eq i64 %86, %74
  br i1 %exitcond.not.i.i, label %87, label %.preheader.i.i, !llvm.loop !7

87:                                               ; preds = %85
  %88 = trunc i64 %.1.i.i to i32
  %89 = add i32 %88, 1
  br label %qunique.exit.i

qunique.exit.i:                                   ; preds = %87, %71
  %.024.i.i = phi i32 [ %89, %87 ], [ %73, %71 ]
  store i32 %.024.i.i, ptr %49, align 4
  br label %sort_snapshot.exit

sort_snapshot.exit:                               ; preds = %FullTransactionIdFromAllowableAt.exit27, %._crit_edge, %qunique.exit.i
  %90 = phi i32 [ %10, %._crit_edge ], [ %.024.i.i, %qunique.exit.i ], [ 0, %FullTransactionIdFromAllowableAt.exit27 ]
  %91 = shl i32 %90, 5
  %92 = add i32 %91, 96
  store i32 %92, ptr %14, align 4
  %93 = ptrtoint ptr %14 to i64
  ret i64 %93
}